target datalayout = "e-m:e-p270:32:32-p271:32:32-p272:64:64-i64:64-i128:128-f80:128-n8:16:32:64-S128"
target triple = "x86_64-pc-linux-gnu"

%struct.UpVal = type { i8, i8, i8, i8, ptr, %union.anon }
%union.anon = type { %struct.anon }
%struct.anon = type { ptr, ptr, ptr }

; Function Attrs: mustprogress uwtable
define hidden void @_Z15luaF_closeupvalP9lua_StateP5UpValb(ptr noundef %0, ptr noundef %1, i1 noundef zeroext %2) #0 {
  %4 = alloca ptr, align 8
  %5 = alloca ptr, align 8
  %6 = alloca i8, align 1
  %7 = alloca ptr, align 8
  %8 = alloca ptr, align 8
  store ptr %0, ptr %4, align 8, !tbaa !4
  store ptr %1, ptr %5, align 8, !tbaa !97
  %9 = zext i1 %2 to i8
  store i8 %9, ptr %6, align 1, !tbaa !108
  %10 = load ptr, ptr %5, align 8, !tbaa !97
  %11 = getelementptr inbounds nuw %struct.UpVal, ptr %10, i32 0, i32 5
  %12 = getelementptr inbounds nuw %struct.anon, ptr %11, i32 0, i32 0
  %13 = load ptr, ptr %12, align 8, !tbaa !90
  %14 = load ptr, ptr %5, align 8, !tbaa !97
  %15 = getelementptr inbounds nuw %struct.UpVal, ptr %14, i32 0, i32 5
  %16 = getelementptr inbounds nuw %struct.anon, ptr %15, i32 0, i32 1
  %17 = load ptr, ptr %16, align 8, !tbaa !90
  %18 = getelementptr inbounds nuw %struct.UpVal, ptr %17, i32 0, i32 5
  %19 = getelementptr inbounds nuw %struct.anon, ptr %18, i32 0, i32 0
  store ptr %13, ptr %19, align 8, !tbaa !90
  %20 = load ptr, ptr %5, align 8, !tbaa !97
  %21 = getelementptr inbounds nuw %struct.UpVal, ptr %20, i32 0, i32 5
  %22 = getelementptr inbounds nuw %struct.anon, ptr %21, i32 0, i32 1
  %23 = load ptr, ptr %22, align 8, !tbaa !90
  %24 = load ptr, ptr %5, align 8, !tbaa !97
  %25 = getelementptr inbounds nuw %struct.UpVal, ptr %24, i32 0, i32 5
  %26 = getelementptr inbounds nuw %struct.anon, ptr %25, i32 0, i32 0
  %27 = load ptr, ptr %26, align 8, !tbaa !90
  %28 = getelementptr inbounds nuw %struct.UpVal, ptr %27, i32 0, i32 5
  %29 = getelementptr inbounds nuw %struct.anon, ptr %28, i32 0, i32 1
  store ptr %23, ptr %29, align 8, !tbaa !90
  %30 = load i8, ptr %6, align 1, !tbaa !108, !range !109, !noundef !110
  %31 = trunc i8 %30 to i1
  br i1 %31, label %32, label %33

32:                                               ; preds = %3
  br label %47

33:                                               ; preds = %3
  call void @llvm.lifetime.start.p0(i64 8, ptr %7) #5
  %34 = load ptr, ptr %5, align 8, !tbaa !97
  %35 = getelementptr inbounds nuw %struct.UpVal, ptr %34, i32 0, i32 4
  %36 = load ptr, ptr %35, align 8, !tbaa !98
  store ptr %36, ptr %7, align 8, !tbaa !93
  call void @llvm.lifetime.start.p0(i64 8, ptr %8) #5
  %37 = load ptr, ptr %5, align 8, !tbaa !97
  %38 = getelementptr inbounds nuw %struct.UpVal, ptr %37, i32 0, i32 5
  store ptr %38, ptr %8, align 8, !tbaa !93
  %39 = load ptr, ptr %7, align 8, !tbaa !93
  %40 = load ptr, ptr %8, align 8, !tbaa !93
  call void @llvm.memcpy.p0.p0.i64(ptr align 8 %40, ptr align 8 %39, i64 16, i1 false), !tbaa.struct !111
  call void @llvm.lifetime.end.p0(i64 8, ptr %8) #5
  call void @llvm.lifetime.end.p0(i64 8, ptr %7) #5
  %41 = load ptr, ptr %5, align 8, !tbaa !97
  %42 = getelementptr inbounds nuw %struct.UpVal, ptr %41, i32 0, i32 5
  %43 = load ptr, ptr %5, align 8, !tbaa !97
  %44 = getelementptr inbounds nuw %struct.UpVal, ptr %43, i32 0, i32 4
  store ptr %42, ptr %44, align 8, !tbaa !98
  %45 = load ptr, ptr %4, align 8, !tbaa !4
  %46 = load ptr, ptr %5, align 8, !tbaa !97
  call void @_Z16luaC_upvalclosedP9lua_StateP5UpVal(ptr noundef %45, ptr noundef %46)
  br label %47

47:                                               ; preds = %33, %32
  ret void
}