; Function Attrs: mustprogress uwtable
define hidden void @_Z15luaF_closeupvalP9lua_StateP5UpValb(ptr noundef %0, ptr noundef %1, i1 noundef zeroext %2) local_unnamed_addr #0 {
  %4 = getelementptr inbounds nuw i8, ptr %1, i64 16
  %5 = load ptr, ptr %4, align 8, !tbaa !53
  %6 = getelementptr inbounds nuw i8, ptr %1, i64 24
  %7 = load ptr, ptr %6, align 8, !tbaa !53
  %8 = getelementptr inbounds nuw i8, ptr %7, i64 16
  store ptr %5, ptr %8, align 8, !tbaa !53
  %9 = load ptr, ptr %6, align 8, !tbaa !53
  %10 = getelementptr inbounds nuw i8, ptr %5, i64 24
  store ptr %9, ptr %10, align 8, !tbaa !53
  br i1 %2, label %14, label %11

11:                                               ; preds = %3
  %12 = getelementptr inbounds nuw i8, ptr %1, i64 8
  %13 = load ptr, ptr %12, align 8, !tbaa !57
  tail call void @llvm.memcpy.p0.p0.i64(ptr noundef nonnull align 8 dereferenceable(16) %4, ptr noundef nonnull align 8 dereferenceable(16) %13, i64 16, i1 false), !tbaa.struct !64
  store ptr %4, ptr %12, align 8, !tbaa !57
  tail call void @_Z16luaC_upvalclosedP9lua_StateP5UpVal(ptr noundef %0, ptr noundef nonnull %1)
  br label %14

14:                                               ; preds = %3, %11
  ret void
}